; Function Attrs: mustprogress nofree norecurse nosync nounwind memory(readwrite, inaccessiblemem: none) uwtable
define hidden void @_ZN9SampleICC11Swap16ArrayEPvi(ptr nocapture noundef %pVoid, i32 noundef %num) local_unnamed_addr #4 {
entry:
  %cmp4 = icmp sgt i32 %num, 0
  br i1 %cmp4, label %while.body, label %while.end

while.body:                                       ; preds = %entry, %while.body
  %ptr.06 = phi ptr [ %add.ptr, %while.body ], [ %pVoid, %entry ]
  %num.addr.05 = phi i32 [ %dec, %while.body ], [ %num, %entry ]
  %arrayidx1 = getelementptr inbounds i8, ptr %ptr.06, i64 1
  %0 = load i8, ptr %ptr.06, align 1
  %1 = load i8, ptr %arrayidx1, align 1
  store i8 %1, ptr %ptr.06, align 1
  store i8 %0, ptr %arrayidx1, align 1
  %add.ptr = getelementptr inbounds i8, ptr %ptr.06, i64 2
  %dec = add nsw i32 %num.addr.05, -1
  %cmp = icmp ugt i32 %num.addr.05, 1
  br i1 %cmp, label %while.body, label %while.end, !llvm.loop !7

while.end:                                        ; preds = %while.body, %entry
  ret void
}